target datalayout = "e-m:e-p270:32:32-p271:32:32-p272:64:64-i64:64-i128:128-f80:128-n8:16:32:64-S128"
target triple = "x86_64-pc-linux-gnu"

%struct.dt_lib_module_t = type { %struct.dt_action_t, ptr, ptr, ptr, ptr, ptr, ptr, ptr, ptr, ptr, ptr, ptr, ptr, ptr, ptr, ptr, ptr, ptr, ptr, ptr, ptr, ptr, ptr, ptr, ptr, ptr, ptr, ptr, ptr, ptr, ptr, [128 x i8], ptr, ptr, i32, ptr, ptr, ptr, i32 }
%struct.dt_action_t = type { i32, ptr, ptr, ptr, ptr, ptr }
%struct.dt_lib_tagging_t = type { [1024 x i8], ptr, ptr, ptr, ptr, ptr, ptr, ptr, ptr, ptr, ptr, ptr, ptr, ptr, ptr, ptr, ptr, ptr, ptr, ptr, ptr, ptr, i32, i32, i32, i32, i32, ptr, ptr, %struct.anon, i32 }
%struct.anon = type { ptr, ptr, ptr, i32, i32, i32, i32, i32 }

@.str.4 = private unnamed_addr constant [2 x i8] c",\00", align 1
@.str.5 = private unnamed_addr constant [1 x i8] zeroinitializer, align 1

; Function Attrs: nounwind uwtable
define internal void @_set_keyword(ptr noundef %0) #0 {
  %2 = alloca ptr, align 8
  %3 = alloca ptr, align 8
  %4 = alloca ptr, align 8
  store ptr %0, ptr %2, align 8, !tbaa !6
  call void @llvm.lifetime.start.p0(i64 8, ptr %3) #11
  %5 = load ptr, ptr %2, align 8, !tbaa !6
  %6 = getelementptr inbounds nuw %struct.dt_lib_module_t, ptr %5, i32 0, i32 30
  %7 = load ptr, ptr %6, align 8, !tbaa !11
  store ptr %7, ptr %3, align 8, !tbaa !19
  call void @llvm.lifetime.start.p0(i64 8, ptr %4) #11
  %8 = load ptr, ptr %3, align 8, !tbaa !19
  %9 = getelementptr inbounds nuw %struct.dt_lib_tagging_t, ptr %8, i32 0, i32 1
  %10 = load ptr, ptr %9, align 8, !tbaa !103
  %11 = call ptr @gtk_entry_get_text(ptr noundef %10)
  %12 = call ptr @g_strrstr(ptr noundef %11, ptr noundef @.str.4)
  store ptr %12, ptr %4, align 8, !tbaa !49
  %13 = load ptr, ptr %4, align 8, !tbaa !49
  %14 = icmp ne ptr %13, null
  br i1 %14, label %20, label %15

15:                                               ; preds = %1
  %16 = load ptr, ptr %3, align 8, !tbaa !19
  %17 = getelementptr inbounds nuw %struct.dt_lib_tagging_t, ptr %16, i32 0, i32 1
  %18 = load ptr, ptr %17, align 8, !tbaa !103
  %19 = call ptr @gtk_entry_get_text(ptr noundef %18)
  store ptr %19, ptr %4, align 8, !tbaa !49
  br label %37

20:                                               ; preds = %1
  %21 = load ptr, ptr %4, align 8, !tbaa !49
  %22 = load i8, ptr %21, align 1, !tbaa !52
  %23 = sext i8 %22 to i32
  %24 = icmp eq i32 %23, 44
  br i1 %24, label %25, label %28

25:                                               ; preds = %20
  %26 = load ptr, ptr %4, align 8, !tbaa !49
  %27 = getelementptr inbounds nuw i8, ptr %26, i32 1
  store ptr %27, ptr %4, align 8, !tbaa !49
  br label %28

28:                                               ; preds = %25, %20
  %29 = load ptr, ptr %4, align 8, !tbaa !49
  %30 = load i8, ptr %29, align 1, !tbaa !52
  %31 = sext i8 %30 to i32
  %32 = icmp eq i32 %31, 32
  br i1 %32, label %33, label %36

33:                                               ; preds = %28
  %34 = load ptr, ptr %4, align 8, !tbaa !49
  %35 = getelementptr inbounds nuw i8, ptr %34, i32 1
  store ptr %35, ptr %4, align 8, !tbaa !49
  br label %36

36:                                               ; preds = %33, %28
  br label %37

37:                                               ; preds = %36, %15
  %38 = load ptr, ptr %3, align 8, !tbaa !19
  %39 = getelementptr inbounds nuw %struct.dt_lib_tagging_t, ptr %38, i32 0, i32 0
  %40 = getelementptr inbounds [1024 x i8], ptr %39, i64 0, i64 0
  %41 = load ptr, ptr %4, align 8, !tbaa !49
  %42 = call i64 @g_strlcpy(ptr noundef %40, ptr noundef %41, i64 noundef 1024)
  call void @llvm.lifetime.end.p0(i64 8, ptr %4) #11
  call void @llvm.lifetime.end.p0(i64 8, ptr %3) #11
  ret void
}

; Function Attrs: nounwind uwtable
define void @gui_reset(ptr noundef %0) #0 {
  %2 = alloca ptr, align 8
  %3 = alloca ptr, align 8
  store ptr %0, ptr %2, align 8, !tbaa !6
  call void @llvm.lifetime.start.p0(i64 8, ptr %3) #11
  %4 = load ptr, ptr %2, align 8, !tbaa !6
  %5 = getelementptr inbounds nuw %struct.dt_lib_module_t, ptr %4, i32 0, i32 30
  %6 = load ptr, ptr %5, align 8, !tbaa !11
  store ptr %6, ptr %3, align 8, !tbaa !19
  %7 = load ptr, ptr %3, align 8, !tbaa !19
  %8 = getelementptr inbounds nuw %struct.dt_lib_tagging_t, ptr %7, i32 0, i32 1
  %9 = load ptr, ptr %8, align 8, !tbaa !103
  call void @gtk_entry_set_text(ptr noundef %9, ptr noundef @.str.5)
  %10 = load ptr, ptr %2, align 8, !tbaa !6
  call void @_set_keyword(ptr noundef %10)
  %11 = load ptr, ptr %2, align 8, !tbaa !6
  call void @_init_treeview(ptr noundef %11, i32 noundef 1)
  %12 = load ptr, ptr %2, align 8, !tbaa !6
  call void @dt_lib_gui_queue_update(ptr noundef %12)
  call void @llvm.lifetime.end.p0(i64 8, ptr %3) #11
  ret void
}