; Function Attrs: nounwind uwtable
define void @gui_reset(ptr noundef %0) local_unnamed_addr #1 {
  %2 = getelementptr inbounds nuw i8, ptr %0, i64 280
  %3 = load ptr, ptr %2, align 8, !tbaa !6
  %4 = getelementptr inbounds nuw i8, ptr %3, i64 1024
  %5 = load ptr, ptr %4, align 8, !tbaa !95
  tail call void @gtk_entry_set_text(ptr noundef %5, ptr noundef nonnull @.str.5) #16
  %.val = load ptr, ptr %2, align 8, !tbaa !6
  %6 = getelementptr inbounds nuw i8, ptr %.val, i64 1024
  %7 = load ptr, ptr %6, align 8, !tbaa !95
  %8 = tail call ptr @gtk_entry_get_text(ptr noundef %7) #16
  %9 = tail call ptr @g_strrstr(ptr noundef %8, ptr noundef nonnull @.str.4) #16
  %.not.i = icmp eq ptr %9, null
  br i1 %.not.i, label %10, label %13

10:                                               ; preds = %1
  %11 = load ptr, ptr %6, align 8, !tbaa !95
  %12 = tail call ptr @gtk_entry_get_text(ptr noundef %11) #16
  br label %_set_keyword.exit

13:                                               ; preds = %1
  %14 = load i8, ptr %9, align 1, !tbaa !40
  %15 = icmp eq i8 %14, 44
  %spec.select.idx.i = zext i1 %15 to i64
  %spec.select.i = getelementptr inbounds nuw i8, ptr %9, i64 %spec.select.idx.i
  %16 = load i8, ptr %spec.select.i, align 1, !tbaa !40
  %17 = icmp eq i8 %16, 32
  %spec.select11.idx.i = zext i1 %17 to i64
  %spec.select11.i = getelementptr inbounds nuw i8, ptr %spec.select.i, i64 %spec.select11.idx.i
  br label %_set_keyword.exit

_set_keyword.exit:                                ; preds = %10, %13
  %.0.i = phi ptr [ %12, %10 ], [ %spec.select11.i, %13 ]
  %18 = tail call i64 @g_strlcpy(ptr noundef nonnull %.val, ptr noundef %.0.i, i64 noundef 1024) #16
  tail call fastcc void @_init_treeview(ptr noundef nonnull %0, i32 noundef 1)
  tail call void @dt_lib_gui_queue_update(ptr noundef nonnull %0) #16
  ret void
}